target datalayout = "e-m:e-p270:32:32-p271:32:32-p272:64:64-i64:64-i128:128-f80:128-n8:16:32:64-S128"
target triple = "x86_64-pc-linux-gnu"

%struct.anon = type { i32, [6 x i8], i32, i32, i32, i32 }

; Function Attrs: nounwind uwtable
define i32 @ff_rtp_codec_id(ptr noundef %0, i32 noundef %1) #0 {
  %3 = alloca i32, align 4
  %4 = alloca ptr, align 8
  %5 = alloca i32, align 4
  %6 = alloca i32, align 4
  %7 = alloca i32, align 4
  store ptr %0, ptr %4, align 8, !tbaa !54
  store i32 %1, ptr %5, align 4, !tbaa !9
  call void @llvm.lifetime.start.p0(i64 4, ptr %6) #3
  store i32 0, ptr %6, align 4, !tbaa !9
  br label %8

8:                                                ; preds = %39, %2
  %9 = load i32, ptr %6, align 4, !tbaa !9
  %10 = sext i32 %9 to i64
  %11 = getelementptr inbounds [27 x %struct.anon], ptr @rtp_payload_types, i64 0, i64 %10
  %12 = getelementptr inbounds nuw %struct.anon, ptr %11, i32 0, i32 0
  %13 = load i32, ptr %12, align 4, !tbaa !11
  %14 = icmp sge i32 %13, 0
  br i1 %14, label %15, label %42

15:                                               ; preds = %8
  %16 = load ptr, ptr %4, align 8, !tbaa !54
  %17 = load i32, ptr %6, align 4, !tbaa !9
  %18 = sext i32 %17 to i64
  %19 = getelementptr inbounds [27 x %struct.anon], ptr @rtp_payload_types, i64 0, i64 %18
  %20 = getelementptr inbounds nuw %struct.anon, ptr %19, i32 0, i32 1
  %21 = getelementptr inbounds [6 x i8], ptr %20, i64 0, i64 0
  %22 = call i32 @av_strcasecmp(ptr noundef %16, ptr noundef %21)
  %23 = icmp ne i32 %22, 0
  br i1 %23, label %38, label %24

24:                                               ; preds = %15
  %25 = load i32, ptr %5, align 4, !tbaa !9
  %26 = load i32, ptr %6, align 4, !tbaa !9
  %27 = sext i32 %26 to i64
  %28 = getelementptr inbounds [27 x %struct.anon], ptr @rtp_payload_types, i64 0, i64 %27
  %29 = getelementptr inbounds nuw %struct.anon, ptr %28, i32 0, i32 2
  %30 = load i32, ptr %29, align 4, !tbaa !14
  %31 = icmp eq i32 %25, %30
  br i1 %31, label %32, label %38

32:                                               ; preds = %24
  %33 = load i32, ptr %6, align 4, !tbaa !9
  %34 = sext i32 %33 to i64
  %35 = getelementptr inbounds [27 x %struct.anon], ptr @rtp_payload_types, i64 0, i64 %34
  %36 = getelementptr inbounds nuw %struct.anon, ptr %35, i32 0, i32 3
  %37 = load i32, ptr %36, align 4, !tbaa !13
  store i32 %37, ptr %3, align 4
  store i32 1, ptr %7, align 4
  br label %43

38:                                               ; preds = %24, %15
  br label %39

39:                                               ; preds = %38
  %40 = load i32, ptr %6, align 4, !tbaa !9
  %41 = add nsw i32 %40, 1
  store i32 %41, ptr %6, align 4, !tbaa !9
  br label %8, !llvm.loop !55

42:                                               ; preds = %8
  store i32 0, ptr %3, align 4
  store i32 1, ptr %7, align 4
  br label %43

43:                                               ; preds = %42, %32
  call void @llvm.lifetime.end.p0(i64 4, ptr %6) #3
  %44 = load i32, ptr %3, align 4
  ret i32 %44
}