; Function Attrs: nounwind uwtable
define i32 @ff_rtp_codec_id(ptr noundef %0, i32 noundef %1) local_unnamed_addr #0 {
  br label %3

3:                                                ; preds = %2, %14
  %indvars.iv = phi i64 [ 0, %2 ], [ %indvars.iv.next, %14 ]
  %4 = phi ptr [ @rtp_payload_types, %2 ], [ %15, %14 ]
  %5 = getelementptr inbounds nuw i8, ptr %4, i64 4
  %6 = tail call i32 @av_strcasecmp(ptr noundef %0, ptr noundef nonnull %5) #4
  %.not = icmp eq i32 %6, 0
  br i1 %.not, label %7, label %14

7:                                                ; preds = %3
  %8 = getelementptr inbounds nuw i8, ptr %4, i64 12
  %9 = load i32, ptr %8, align 4, !tbaa !9
  %10 = icmp eq i32 %1, %9
  br i1 %10, label %11, label %14

11:                                               ; preds = %7
  %12 = getelementptr inbounds nuw i8, ptr %4, i64 16
  %13 = load i32, ptr %12, align 4, !tbaa !4
  br label %.loopexit

14:                                               ; preds = %3, %7
  %indvars.iv.next = add nuw nsw i64 %indvars.iv, 1
  %15 = getelementptr inbounds nuw [27 x %struct.anon], ptr @rtp_payload_types, i64 0, i64 %indvars.iv.next
  %exitcond.not = icmp eq i64 %indvars.iv.next, 26
  br i1 %exitcond.not, label %.loopexit, label %3, !llvm.loop !47

.loopexit:                                        ; preds = %14, %11
  %.07 = phi i32 [ %13, %11 ], [ 0, %14 ]
  ret i32 %.07
}